target datalayout = "e-m:e-p270:32:32-p271:32:32-p272:64:64-i64:64-i128:128-f80:128-n8:16:32:64-S128"
target triple = "x86_64-pc-linux-gnu"

%struct.test_fixture = type { ptr, ptr, ptr, ptr, ptr, ptr, i32, ptr, ptr, ptr, i32, i32, i32 }

@endentity1 = internal global ptr null, align 8
@endentity2 = internal global ptr null, align 8
@root = internal global ptr null, align 8
@intermediate = internal global ptr null, align 8
@.str.14 = private unnamed_addr constant [35 x i8] c"../openssl/test/cmp_protect_test.c\00", align 1
@.str.61 = private unnamed_addr constant [33 x i8] c"test_X509_STORE_only_self_issued\00", align 1
@.str.90 = private unnamed_addr constant [41 x i8] c"sk_X509_push(fixture->certs, endentity1)\00", align 1
@.str.91 = private unnamed_addr constant [35 x i8] c"sk_X509_push(fixture->certs, root)\00", align 1
@.str.92 = private unnamed_addr constant [43 x i8] c"sk_X509_push(fixture->certs, intermediate)\00", align 1
@.str.95 = private unnamed_addr constant [35 x i8] c"sk_X509_push(fixture->chain, root)\00", align 1
@.str.105 = private unnamed_addr constant [41 x i8] c"sk_X509_push(fixture->certs, endentity2)\00", align 1

; Function Attrs: nounwind uwtable
define internal void @tear_down(ptr noundef %0) #0 {
  %2 = alloca ptr, align 8
  store ptr %0, ptr %2, align 8, !tbaa !19
  %3 = load ptr, ptr %2, align 8, !tbaa !19
  %4 = icmp ne ptr %3, null
  br i1 %4, label %5, label %27

5:                                                ; preds = %1
  %6 = load ptr, ptr %2, align 8, !tbaa !19
  %7 = getelementptr inbounds nuw %struct.test_fixture, ptr %6, i32 0, i32 1
  %8 = load ptr, ptr %7, align 8, !tbaa !40
  call void @OSSL_CMP_CTX_free(ptr noundef %8)
  %9 = load ptr, ptr %2, align 8, !tbaa !19
  %10 = getelementptr inbounds nuw %struct.test_fixture, ptr %9, i32 0, i32 2
  %11 = load ptr, ptr %10, align 8, !tbaa !23
  call void @OSSL_CMP_MSG_free(ptr noundef %11)
  %12 = load ptr, ptr %2, align 8, !tbaa !19
  %13 = getelementptr inbounds nuw %struct.test_fixture, ptr %12, i32 0, i32 3
  %14 = load ptr, ptr %13, align 8, !tbaa !51
  call void @OSSL_CMP_PKISI_free(ptr noundef %14)
  %15 = load ptr, ptr %2, align 8, !tbaa !19
  %16 = getelementptr inbounds nuw %struct.test_fixture, ptr %15, i32 0, i32 5
  %17 = load ptr, ptr %16, align 8, !tbaa !52
  call void @CRYPTO_free(ptr noundef %17, ptr noundef @.str.14, i32 noundef 46)
  %18 = load ptr, ptr %2, align 8, !tbaa !19
  %19 = getelementptr inbounds nuw %struct.test_fixture, ptr %18, i32 0, i32 8
  %20 = load ptr, ptr %19, align 8, !tbaa !47
  %21 = call ptr @ossl_check_X509_sk_type(ptr noundef %20)
  call void @OPENSSL_sk_free(ptr noundef %21)
  %22 = load ptr, ptr %2, align 8, !tbaa !19
  %23 = getelementptr inbounds nuw %struct.test_fixture, ptr %22, i32 0, i32 9
  %24 = load ptr, ptr %23, align 8, !tbaa !48
  %25 = call ptr @ossl_check_X509_sk_type(ptr noundef %24)
  call void @OPENSSL_sk_free(ptr noundef %25)
  %26 = load ptr, ptr %2, align 8, !tbaa !19
  call void @CRYPTO_free(ptr noundef %26, ptr noundef @.str.14, i32 noundef 50)
  br label %27

27:                                               ; preds = %5, %1
  ret void
}

; Function Attrs: inlinehint nounwind uwtable
define internal ptr @ossl_check_X509_type(ptr noundef %0) #3 {
  %2 = alloca ptr, align 8
  store ptr %0, ptr %2, align 8, !tbaa !11
  %3 = load ptr, ptr %2, align 8, !tbaa !11
  ret ptr %3
}

; Function Attrs: inlinehint nounwind uwtable
define internal ptr @ossl_check_X509_sk_type(ptr noundef %0) #3 {
  %2 = alloca ptr, align 8
  store ptr %0, ptr %2, align 8, !tbaa !54
  %3 = load ptr, ptr %2, align 8, !tbaa !54
  ret ptr %3
}

; Function Attrs: nounwind uwtable
define internal i32 @test_X509_STORE_only_self_issued() #0 {
  %1 = alloca i32, align 4
  %2 = alloca ptr, align 8
  %3 = alloca i32, align 4
  %4 = alloca i32, align 4
  call void @llvm.lifetime.start.p0(i64 8, ptr %2) #5
  %5 = call ptr @set_up(ptr noundef @.str.61)
  store ptr %5, ptr %2, align 8, !tbaa !19
  call void @llvm.lifetime.start.p0(i64 4, ptr %3) #5
  store i32 0, ptr %3, align 4, !tbaa !21
  %6 = load ptr, ptr %2, align 8, !tbaa !19
  %7 = icmp eq ptr %6, null
  br i1 %7, label %8, label %9

8:                                                ; preds = %0
  store i32 0, ptr %1, align 4
  store i32 1, ptr %4, align 4
  br label %88

9:                                                ; preds = %0
  %10 = call ptr @OPENSSL_sk_new_null()
  %11 = load ptr, ptr %2, align 8, !tbaa !19
  %12 = getelementptr inbounds nuw %struct.test_fixture, ptr %11, i32 0, i32 8
  store ptr %10, ptr %12, align 8, !tbaa !47
  %13 = call ptr @OPENSSL_sk_new_null()
  %14 = load ptr, ptr %2, align 8, !tbaa !19
  %15 = getelementptr inbounds nuw %struct.test_fixture, ptr %14, i32 0, i32 9
  store ptr %13, ptr %15, align 8, !tbaa !48
  %16 = load ptr, ptr %2, align 8, !tbaa !19
  %17 = getelementptr inbounds nuw %struct.test_fixture, ptr %16, i32 0, i32 11
  store i32 1, ptr %17, align 4, !tbaa !49
  %18 = load ptr, ptr %2, align 8, !tbaa !19
  %19 = getelementptr inbounds nuw %struct.test_fixture, ptr %18, i32 0, i32 8
  %20 = load ptr, ptr %19, align 8, !tbaa !47
  %21 = call ptr @ossl_check_X509_sk_type(ptr noundef %20)
  %22 = load ptr, ptr @endentity1, align 8, !tbaa !11
  %23 = call ptr @ossl_check_X509_type(ptr noundef %22)
  %24 = call i32 @OPENSSL_sk_push(ptr noundef %21, ptr noundef %23)
  %25 = icmp ne i32 %24, 0
  %26 = zext i1 %25 to i32
  %27 = call i32 @test_true(ptr noundef @.str.14, i32 noundef 513, ptr noundef @.str.90, i32 noundef %26)
  %28 = icmp ne i32 %27, 0
  br i1 %28, label %29, label %77

29:                                               ; preds = %9
  %30 = load ptr, ptr %2, align 8, !tbaa !19
  %31 = getelementptr inbounds nuw %struct.test_fixture, ptr %30, i32 0, i32 8
  %32 = load ptr, ptr %31, align 8, !tbaa !47
  %33 = call ptr @ossl_check_X509_sk_type(ptr noundef %32)
  %34 = load ptr, ptr @endentity2, align 8, !tbaa !11
  %35 = call ptr @ossl_check_X509_type(ptr noundef %34)
  %36 = call i32 @OPENSSL_sk_push(ptr noundef %33, ptr noundef %35)
  %37 = icmp ne i32 %36, 0
  %38 = zext i1 %37 to i32
  %39 = call i32 @test_true(ptr noundef @.str.14, i32 noundef 514, ptr noundef @.str.105, i32 noundef %38)
  %40 = icmp ne i32 %39, 0
  br i1 %40, label %41, label %77

41:                                               ; preds = %29
  %42 = load ptr, ptr %2, align 8, !tbaa !19
  %43 = getelementptr inbounds nuw %struct.test_fixture, ptr %42, i32 0, i32 8
  %44 = load ptr, ptr %43, align 8, !tbaa !47
  %45 = call ptr @ossl_check_X509_sk_type(ptr noundef %44)
  %46 = load ptr, ptr @root, align 8, !tbaa !11
  %47 = call ptr @ossl_check_X509_type(ptr noundef %46)
  %48 = call i32 @OPENSSL_sk_push(ptr noundef %45, ptr noundef %47)
  %49 = icmp ne i32 %48, 0
  %50 = zext i1 %49 to i32
  %51 = call i32 @test_true(ptr noundef @.str.14, i32 noundef 515, ptr noundef @.str.91, i32 noundef %50)
  %52 = icmp ne i32 %51, 0
  br i1 %52, label %53, label %77

53:                                               ; preds = %41
  %54 = load ptr, ptr %2, align 8, !tbaa !19
  %55 = getelementptr inbounds nuw %struct.test_fixture, ptr %54, i32 0, i32 8
  %56 = load ptr, ptr %55, align 8, !tbaa !47
  %57 = call ptr @ossl_check_X509_sk_type(ptr noundef %56)
  %58 = load ptr, ptr @intermediate, align 8, !tbaa !11
  %59 = call ptr @ossl_check_X509_type(ptr noundef %58)
  %60 = call i32 @OPENSSL_sk_push(ptr noundef %57, ptr noundef %59)
  %61 = icmp ne i32 %60, 0
  %62 = zext i1 %61 to i32
  %63 = call i32 @test_true(ptr noundef @.str.14, i32 noundef 516, ptr noundef @.str.92, i32 noundef %62)
  %64 = icmp ne i32 %63, 0
  br i1 %64, label %65, label %77

65:                                               ; preds = %53
  %66 = load ptr, ptr %2, align 8, !tbaa !19
  %67 = getelementptr inbounds nuw %struct.test_fixture, ptr %66, i32 0, i32 9
  %68 = load ptr, ptr %67, align 8, !tbaa !48
  %69 = call ptr @ossl_check_X509_sk_type(ptr noundef %68)
  %70 = load ptr, ptr @root, align 8, !tbaa !11
  %71 = call ptr @ossl_check_X509_type(ptr noundef %70)
  %72 = call i32 @OPENSSL_sk_push(ptr noundef %69, ptr noundef %71)
  %73 = icmp ne i32 %72, 0
  %74 = zext i1 %73 to i32
  %75 = call i32 @test_true(ptr noundef @.str.14, i32 noundef 517, ptr noundef @.str.95, i32 noundef %74)
  %76 = icmp ne i32 %75, 0
  br i1 %76, label %79, label %77

77:                                               ; preds = %65, %53, %41, %29, %9
  %78 = load ptr, ptr %2, align 8, !tbaa !19
  call void @tear_down(ptr noundef %78)
  store ptr null, ptr %2, align 8, !tbaa !19
  br label %79

79:                                               ; preds = %77, %65
  %80 = load ptr, ptr %2, align 8, !tbaa !19
  %81 = icmp ne ptr %80, null
  br i1 %81, label %82, label %86

82:                                               ; preds = %79
  %83 = load ptr, ptr %2, align 8, !tbaa !19
  %84 = call i32 @execute_X509_STORE_test(ptr noundef %83)
  store i32 %84, ptr %3, align 4, !tbaa !21
  %85 = load ptr, ptr %2, align 8, !tbaa !19
  call void @tear_down(ptr noundef %85)
  br label %86

86:                                               ; preds = %82, %79
  %87 = load i32, ptr %3, align 4, !tbaa !21
  store i32 %87, ptr %1, align 4
  store i32 1, ptr %4, align 4
  br label %88

88:                                               ; preds = %86, %8
  call void @llvm.lifetime.end.p0(i64 4, ptr %3) #5
  call void @llvm.lifetime.end.p0(i64 8, ptr %2) #5
  %89 = load i32, ptr %1, align 4
  ret i32 %89
}