; Function Attrs: nounwind uwtable
define internal range(i32 0, 2) i32 @test_X509_STORE_only_self_issued() #0 {
  %1 = tail call fastcc ptr @set_up(ptr noundef nonnull @.str.61)
  %2 = icmp eq ptr %1, null
  br i1 %2, label %54, label %3

3:                                                ; preds = %0
  %4 = tail call ptr @OPENSSL_sk_new_null() #5
  %5 = getelementptr inbounds nuw i8, ptr %1, i64 64
  store ptr %4, ptr %5, align 8, !tbaa !39
  %6 = tail call ptr @OPENSSL_sk_new_null() #5
  %7 = getelementptr inbounds nuw i8, ptr %1, i64 72
  store ptr %6, ptr %7, align 8, !tbaa !40
  %8 = getelementptr inbounds nuw i8, ptr %1, i64 84
  store i32 1, ptr %8, align 4, !tbaa !46
  %9 = load ptr, ptr %5, align 8, !tbaa !39
  %10 = load ptr, ptr @endentity1, align 8, !tbaa !11
  %11 = tail call i32 @OPENSSL_sk_push(ptr noundef %9, ptr noundef %10) #5
  %12 = icmp ne i32 %11, 0
  %13 = zext i1 %12 to i32
  %14 = tail call i32 @test_true(ptr noundef nonnull @.str.14, i32 noundef 513, ptr noundef nonnull @.str.90, i32 noundef %13) #5
  %.not = icmp eq i32 %14, 0
  br i1 %.not, label %.sink.split, label %15

15:                                               ; preds = %3
  %16 = load ptr, ptr %5, align 8, !tbaa !39
  %17 = load ptr, ptr @endentity2, align 8, !tbaa !11
  %18 = tail call i32 @OPENSSL_sk_push(ptr noundef %16, ptr noundef %17) #5
  %19 = icmp ne i32 %18, 0
  %20 = zext i1 %19 to i32
  %21 = tail call i32 @test_true(ptr noundef nonnull @.str.14, i32 noundef 514, ptr noundef nonnull @.str.105, i32 noundef %20) #5
  %.not17 = icmp eq i32 %21, 0
  br i1 %.not17, label %.sink.split, label %22

22:                                               ; preds = %15
  %23 = load ptr, ptr %5, align 8, !tbaa !39
  %24 = load ptr, ptr @root, align 8, !tbaa !11
  %25 = tail call i32 @OPENSSL_sk_push(ptr noundef %23, ptr noundef %24) #5
  %26 = icmp ne i32 %25, 0
  %27 = zext i1 %26 to i32
  %28 = tail call i32 @test_true(ptr noundef nonnull @.str.14, i32 noundef 515, ptr noundef nonnull @.str.91, i32 noundef %27) #5
  %.not18 = icmp eq i32 %28, 0
  br i1 %.not18, label %.sink.split, label %29

29:                                               ; preds = %22
  %30 = load ptr, ptr %5, align 8, !tbaa !39
  %31 = load ptr, ptr @intermediate, align 8, !tbaa !11
  %32 = tail call i32 @OPENSSL_sk_push(ptr noundef %30, ptr noundef %31) #5
  %33 = icmp ne i32 %32, 0
  %34 = zext i1 %33 to i32
  %35 = tail call i32 @test_true(ptr noundef nonnull @.str.14, i32 noundef 516, ptr noundef nonnull @.str.92, i32 noundef %34) #5
  %.not19 = icmp eq i32 %35, 0
  br i1 %.not19, label %.sink.split, label %36

36:                                               ; preds = %29
  %37 = load ptr, ptr %7, align 8, !tbaa !40
  %38 = load ptr, ptr @root, align 8, !tbaa !11
  %39 = tail call i32 @OPENSSL_sk_push(ptr noundef %37, ptr noundef %38) #5
  %40 = icmp ne i32 %39, 0
  %41 = zext i1 %40 to i32
  %42 = tail call i32 @test_true(ptr noundef nonnull @.str.14, i32 noundef 517, ptr noundef nonnull @.str.95, i32 noundef %41) #5
  %.not20 = icmp eq i32 %42, 0
  br i1 %.not20, label %.sink.split, label %tear_down.exit23

tear_down.exit23:                                 ; preds = %36
  %43 = tail call fastcc i32 @execute_X509_STORE_test(ptr noundef %1)
  br label %.sink.split

.sink.split:                                      ; preds = %36, %29, %22, %15, %3, %tear_down.exit23
  %.015.ph = phi i32 [ %43, %tear_down.exit23 ], [ 0, %3 ], [ 0, %15 ], [ 0, %22 ], [ 0, %29 ], [ 0, %36 ]
  %44 = getelementptr inbounds nuw i8, ptr %1, i64 8
  %45 = load ptr, ptr %44, align 8, !tbaa !36
  tail call void @OSSL_CMP_CTX_free(ptr noundef %45) #5
  %46 = getelementptr inbounds nuw i8, ptr %1, i64 16
  %47 = load ptr, ptr %46, align 8, !tbaa !19
  tail call void @OSSL_CMP_MSG_free(ptr noundef %47) #5
  %48 = getelementptr inbounds nuw i8, ptr %1, i64 24
  %49 = load ptr, ptr %48, align 8, !tbaa !37
  tail call void @OSSL_CMP_PKISI_free(ptr noundef %49) #5
  %50 = getelementptr inbounds nuw i8, ptr %1, i64 40
  %51 = load ptr, ptr %50, align 8, !tbaa !38
  tail call void @CRYPTO_free(ptr noundef %51, ptr noundef nonnull @.str.14, i32 noundef 46) #5
  %52 = load ptr, ptr %5, align 8, !tbaa !39
  tail call void @OPENSSL_sk_free(ptr noundef %52) #5
  %53 = load ptr, ptr %7, align 8, !tbaa !40
  tail call void @OPENSSL_sk_free(ptr noundef %53) #5
  tail call void @CRYPTO_free(ptr noundef nonnull %1, ptr noundef nonnull @.str.14, i32 noundef 50) #5
  br label %54

54:                                               ; preds = %.sink.split, %0
  %.015 = phi i32 [ 0, %0 ], [ %.015.ph, %.sink.split ]
  ret i32 %.015
}